; Function Attrs: mustprogress uwtable
define void @_ZN3gmx22ProcessFrameConversion12convertFrameEP10t_trxframe(ptr noundef nonnull align 8 dereferenceable(120) %0, ptr noundef %1) unnamed_addr #1 align 2 {
  %3 = load ptr, ptr %0, align 8
  %4 = getelementptr inbounds i8, ptr %3, i64 24
  %5 = load ptr, ptr %4, align 8
  %6 = tail call noundef i64 %5(ptr noundef nonnull align 8 dereferenceable(120) %0)
  %7 = getelementptr inbounds i8, ptr %0, i64 112
  %8 = load i64, ptr %7, align 8
  %9 = or i64 %8, %6
  %10 = and i64 %6, 33216
  %or.cond9.i = icmp eq i64 %10, 0
  %11 = and i64 %9, -569
  %spec.select.i = select i1 %or.cond9.i, i64 %9, i64 %11
  store i64 %spec.select.i, ptr %7, align 8
  %12 = getelementptr inbounds i8, ptr %0, i64 8
  %13 = load ptr, ptr %12, align 8
  %14 = getelementptr inbounds i8, ptr %0, i64 16
  %15 = load ptr, ptr %14, align 8
  %.not11 = icmp eq ptr %13, %15
  br i1 %.not11, label %._crit_edge, label %.lr.ph

.lr.ph:                                           ; preds = %2, %.lr.ph
  %.sroa.08.012 = phi ptr [ %29, %.lr.ph ], [ %13, %2 ]
  %16 = load ptr, ptr %.sroa.08.012, align 8
  %17 = load ptr, ptr %16, align 8
  %18 = getelementptr inbounds i8, ptr %17, i64 16
  %19 = load ptr, ptr %18, align 8
  tail call void %19(ptr noundef nonnull align 8 dereferenceable(8) %16, ptr noundef %1)
  %20 = load ptr, ptr %.sroa.08.012, align 8
  %21 = load ptr, ptr %20, align 8
  %22 = getelementptr inbounds i8, ptr %21, i64 24
  %23 = load ptr, ptr %22, align 8
  %24 = tail call noundef i64 %23(ptr noundef nonnull align 8 dereferenceable(8) %20)
  %25 = load i64, ptr %7, align 8
  %26 = or i64 %25, %24
  %27 = and i64 %24, 33216
  %or.cond9.i6 = icmp eq i64 %27, 0
  %28 = and i64 %26, -569
  %spec.select.i7 = select i1 %or.cond9.i6, i64 %26, i64 %28
  store i64 %spec.select.i7, ptr %7, align 8
  %29 = getelementptr inbounds i8, ptr %.sroa.08.012, i64 8
  %.not = icmp eq ptr %29, %15
  br i1 %.not, label %._crit_edge, label %.lr.ph

._crit_edge:                                      ; preds = %.lr.ph, %2
  ret void
}